target datalayout = "e-m:e-p270:32:32-p271:32:32-p272:64:64-i64:64-i128:128-f80:128-n8:16:32:64-S128"
target triple = "x86_64-pc-linux-gnu"

%struct.RangeBound = type { i64, i8, i8, i8 }

; Function Attrs: nounwind uwtable
define dso_local ptr @make_empty_range(ptr noundef %0) #0 {
  %2 = alloca ptr, align 8
  %3 = alloca %struct.RangeBound, align 8
  %4 = alloca %struct.RangeBound, align 8
  store ptr %0, ptr %2, align 8
  call void @llvm.lifetime.start.p0(i64 16, ptr %3) #10
  call void @llvm.lifetime.start.p0(i64 16, ptr %4) #10
  %5 = getelementptr inbounds nuw %struct.RangeBound, ptr %3, i32 0, i32 0
  store i64 0, ptr %5, align 8
  %6 = getelementptr inbounds nuw %struct.RangeBound, ptr %3, i32 0, i32 1
  store i8 0, ptr %6, align 8
  %7 = getelementptr inbounds nuw %struct.RangeBound, ptr %3, i32 0, i32 2
  store i8 0, ptr %7, align 1
  %8 = getelementptr inbounds nuw %struct.RangeBound, ptr %3, i32 0, i32 3
  store i8 1, ptr %8, align 2
  %9 = getelementptr inbounds nuw %struct.RangeBound, ptr %4, i32 0, i32 0
  store i64 0, ptr %9, align 8
  %10 = getelementptr inbounds nuw %struct.RangeBound, ptr %4, i32 0, i32 1
  store i8 0, ptr %10, align 8
  %11 = getelementptr inbounds nuw %struct.RangeBound, ptr %4, i32 0, i32 2
  store i8 0, ptr %11, align 1
  %12 = getelementptr inbounds nuw %struct.RangeBound, ptr %4, i32 0, i32 3
  store i8 0, ptr %12, align 2
  %13 = load ptr, ptr %2, align 8
  %14 = call ptr @make_range(ptr noundef %13, ptr noundef %3, ptr noundef %4, i1 noundef zeroext true, ptr noundef null)
  call void @llvm.lifetime.end.p0(i64 16, ptr %4) #10
  call void @llvm.lifetime.end.p0(i64 16, ptr %3) #10
  ret ptr %14
}