; Function Attrs: nounwind uwtable
define dso_local ptr @make_empty_range(ptr noundef %0) local_unnamed_addr #0 {
  %2 = alloca %struct.RangeBound, align 8
  %3 = alloca %struct.RangeBound, align 8
  call void @llvm.lifetime.start.p0(i64 16, ptr nonnull %2) #14
  call void @llvm.lifetime.start.p0(i64 16, ptr nonnull %3) #14
  store i64 0, ptr %2, align 8
  %4 = getelementptr inbounds nuw i8, ptr %2, i64 8
  store i8 0, ptr %4, align 8
  %5 = getelementptr inbounds nuw i8, ptr %2, i64 9
  store i8 0, ptr %5, align 1
  %6 = getelementptr inbounds nuw i8, ptr %2, i64 10
  store i8 1, ptr %6, align 2
  call void @llvm.memset.p0.i64(ptr noundef nonnull align 8 dereferenceable(11) %3, i8 0, i64 11, i1 false)
  %7 = call ptr @make_range(ptr noundef %0, ptr noundef nonnull %2, ptr noundef nonnull %3, i1 noundef zeroext true, ptr noundef null)
  call void @llvm.lifetime.end.p0(i64 16, ptr nonnull %3) #14
  call void @llvm.lifetime.end.p0(i64 16, ptr nonnull %2) #14
  ret ptr %7
}